target datalayout = "e-m:e-p270:32:32-p271:32:32-p272:64:64-i64:64-i128:128-f80:128-n8:16:32:64-S128"
target triple = "x86_64-pc-linux-gnu"

%struct.SDL_Environment = type { ptr, ptr }
%struct.CountEnvStringsData = type { i64, i64 }
%struct.CopyEnvStringsData = type { ptr, ptr, i64 }

@.str = private unnamed_addr constant [26 x i8] c"Parameter '%s' is invalid\00", align 1
@.str.1 = private unnamed_addr constant [4 x i8] c"env\00", align 1

; Function Attrs: nounwind uwtable
define hidden ptr @SDL_GetEnvironmentVariables_REAL(ptr noundef %0) #0 {
  %2 = alloca ptr, align 8
  %3 = alloca ptr, align 8
  %4 = alloca ptr, align 8
  %5 = alloca i32, align 4
  %6 = alloca %struct.CountEnvStringsData, align 8
  %7 = alloca ptr, align 8
  %8 = alloca %struct.CopyEnvStringsData, align 8
  store ptr %0, ptr %3, align 8
  call void @llvm.lifetime.start.p0(i64 8, ptr %4) #7
  store ptr null, ptr %4, align 8
  %9 = load ptr, ptr %3, align 8
  %10 = icmp ne ptr %9, null
  br i1 %10, label %13, label %11

11:                                               ; preds = %1
  %12 = call zeroext i1 (ptr, ...) @SDL_SetError_REAL(ptr noundef @.str, ptr noundef @.str.1)
  store ptr null, ptr %2, align 8
  store i32 1, ptr %5, align 4
  br label %58

13:                                               ; preds = %1
  %14 = load ptr, ptr %3, align 8
  %15 = getelementptr inbounds nuw %struct.SDL_Environment, ptr %14, i32 0, i32 0
  %16 = load ptr, ptr %15, align 8
  call void @SDL_LockMutex_REAL(ptr noundef %16)
  call void @llvm.lifetime.start.p0(i64 16, ptr %6) #7
  call void @llvm.memset.p0.i64(ptr align 8 %6, i8 0, i64 16, i1 false)
  %17 = load ptr, ptr %3, align 8
  %18 = getelementptr inbounds nuw %struct.SDL_Environment, ptr %17, i32 0, i32 1
  %19 = load ptr, ptr %18, align 8
  %20 = call zeroext i1 @SDL_IterateHashTable(ptr noundef %19, ptr noundef @CountEnvStrings, ptr noundef %6)
  %21 = getelementptr inbounds nuw %struct.CountEnvStringsData, ptr %6, i32 0, i32 0
  %22 = load i64, ptr %21, align 8
  %23 = add i64 %22, 1
  %24 = mul i64 %23, 8
  %25 = getelementptr inbounds nuw %struct.CountEnvStringsData, ptr %6, i32 0, i32 1
  %26 = load i64, ptr %25, align 8
  %27 = add i64 %24, %26
  %28 = call noalias ptr @SDL_malloc_REAL(i64 noundef %27)
  store ptr %28, ptr %4, align 8
  %29 = load ptr, ptr %4, align 8
  %30 = icmp ne ptr %29, null
  br i1 %30, label %31, label %53

31:                                               ; preds = %13
  call void @llvm.lifetime.start.p0(i64 8, ptr %7) #7
  %32 = load ptr, ptr %4, align 8
  %33 = getelementptr inbounds nuw %struct.CountEnvStringsData, ptr %6, i32 0, i32 0
  %34 = load i64, ptr %33, align 8
  %35 = getelementptr inbounds nuw ptr, ptr %32, i64 %34
  %36 = getelementptr inbounds ptr, ptr %35, i64 1
  store ptr %36, ptr %7, align 8
  call void @llvm.lifetime.start.p0(i64 24, ptr %8) #7
  %37 = getelementptr inbounds nuw %struct.CopyEnvStringsData, ptr %8, i32 0, i32 0
  %38 = load ptr, ptr %4, align 8
  store ptr %38, ptr %37, align 8
  %39 = getelementptr inbounds nuw %struct.CopyEnvStringsData, ptr %8, i32 0, i32 1
  %40 = load ptr, ptr %7, align 8
  store ptr %40, ptr %39, align 8
  %41 = getelementptr inbounds nuw %struct.CopyEnvStringsData, ptr %8, i32 0, i32 2
  store i64 0, ptr %41, align 8
  %42 = load ptr, ptr %3, align 8
  %43 = getelementptr inbounds nuw %struct.SDL_Environment, ptr %42, i32 0, i32 1
  %44 = load ptr, ptr %43, align 8
  %45 = call zeroext i1 @SDL_IterateHashTable(ptr noundef %44, ptr noundef @CopyEnvStrings, ptr noundef %8)
  br label %46

46:                                               ; preds = %31
  br label %47

47:                                               ; preds = %46
  br label %48

48:                                               ; preds = %47
  %49 = load ptr, ptr %4, align 8
  %50 = getelementptr inbounds nuw %struct.CopyEnvStringsData, ptr %8, i32 0, i32 2
  %51 = load i64, ptr %50, align 8
  %52 = getelementptr inbounds nuw ptr, ptr %49, i64 %51
  store ptr null, ptr %52, align 8
  call void @llvm.lifetime.end.p0(i64 24, ptr %8) #7
  call void @llvm.lifetime.end.p0(i64 8, ptr %7) #7
  br label %53

53:                                               ; preds = %48, %13
  call void @llvm.lifetime.end.p0(i64 16, ptr %6) #7
  %54 = load ptr, ptr %3, align 8
  %55 = getelementptr inbounds nuw %struct.SDL_Environment, ptr %54, i32 0, i32 0
  %56 = load ptr, ptr %55, align 8
  call void @SDL_UnlockMutex_REAL(ptr noundef %56)
  %57 = load ptr, ptr %4, align 8
  store ptr %57, ptr %2, align 8
  store i32 1, ptr %5, align 4
  br label %58

58:                                               ; preds = %53, %11
  call void @llvm.lifetime.end.p0(i64 8, ptr %4) #7
  %59 = load ptr, ptr %2, align 8
  ret ptr %59
}