; Function Attrs: nounwind uwtable
define hidden ptr @SDL_GetEnvironmentVariables_REAL(ptr noundef readonly captures(address_is_null) %0) local_unnamed_addr #0 {
  %2 = alloca %struct.CountEnvStringsData, align 8
  %3 = alloca %struct.CopyEnvStringsData, align 8
  %.not = icmp eq ptr %0, null
  br i1 %.not, label %4, label %6

4:                                                ; preds = %1
  %5 = tail call zeroext i1 (ptr, ...) @SDL_SetError_REAL(ptr noundef nonnull @.str, ptr noundef nonnull @.str.1) #11
  br label %30

6:                                                ; preds = %1
  %7 = load ptr, ptr %0, align 8
  tail call void @SDL_LockMutex_REAL(ptr noundef %7) #11
  call void @llvm.lifetime.start.p0(i64 16, ptr nonnull %2) #11
  call void @llvm.memset.p0.i64(ptr noundef nonnull align 8 dereferenceable(16) %2, i8 0, i64 16, i1 false)
  %8 = getelementptr inbounds nuw i8, ptr %0, i64 8
  %9 = load ptr, ptr %8, align 8
  %10 = call zeroext i1 @SDL_IterateHashTable(ptr noundef %9, ptr noundef nonnull @CountEnvStrings, ptr noundef nonnull %2) #11
  %11 = load i64, ptr %2, align 8
  %12 = shl i64 %11, 3
  %13 = add i64 %12, 8
  %14 = getelementptr inbounds nuw i8, ptr %2, i64 8
  %15 = load i64, ptr %14, align 8
  %16 = add i64 %13, %15
  %17 = call noalias ptr @SDL_malloc_REAL(i64 noundef %16) #11
  %.not14 = icmp eq ptr %17, null
  br i1 %.not14, label %28, label %18

18:                                               ; preds = %6
  %19 = load i64, ptr %2, align 8
  %20 = getelementptr inbounds nuw ptr, ptr %17, i64 %19
  %21 = getelementptr inbounds nuw i8, ptr %20, i64 8
  call void @llvm.lifetime.start.p0(i64 24, ptr nonnull %3) #11
  store ptr %17, ptr %3, align 8
  %22 = getelementptr inbounds nuw i8, ptr %3, i64 8
  store ptr %21, ptr %22, align 8
  %23 = getelementptr inbounds nuw i8, ptr %3, i64 16
  store i64 0, ptr %23, align 8
  %24 = load ptr, ptr %8, align 8
  %25 = call zeroext i1 @SDL_IterateHashTable(ptr noundef %24, ptr noundef nonnull @CopyEnvStrings, ptr noundef nonnull %3) #11
  %26 = load i64, ptr %23, align 8
  %27 = getelementptr inbounds nuw ptr, ptr %17, i64 %26
  store ptr null, ptr %27, align 8
  call void @llvm.lifetime.end.p0(i64 24, ptr nonnull %3) #11
  br label %28

28:                                               ; preds = %18, %6
  call void @llvm.lifetime.end.p0(i64 16, ptr nonnull %2) #11
  %29 = load ptr, ptr %0, align 8
  call void @SDL_UnlockMutex_REAL(ptr noundef %29) #11
  br label %30

30:                                               ; preds = %28, %4
  %.0 = phi ptr [ %17, %28 ], [ null, %4 ]
  ret ptr %.0
}